; Function Attrs: nounwind sspstrong uwtable
define dso_local i32 @gdb_breakpoint_insert(ptr noundef readnone captures(none) %0, i32 noundef %1, i64 noundef %2, i64 noundef %3) local_unnamed_addr #0 {
  %switch = icmp ult i32 %1, 2
  br i1 %switch, label %5, label %.loopexit

5:                                                ; preds = %4
  %6 = load atomic i64, ptr @cpus_queue monotonic, align 8
  tail call void asm sideeffect "", "~{memory},~{dirflag},~{fpsr},~{flags}"() #16, !srcloc !28
  %.not17 = icmp eq i64 %6, 0
  br i1 %.not17, label %.loopexit, label %.lr.ph

.lr.ph:                                           ; preds = %5, %8
  %.01118.in = phi i64 [ %10, %8 ], [ %6, %5 ]
  %.01118 = inttoptr i64 %.01118.in to ptr
  %7 = tail call i32 @cpu_breakpoint_insert(ptr noundef nonnull %.01118, i64 noundef %2, i32 noundef 16, ptr noundef null) #16
  %.not15 = icmp eq i32 %7, 0
  br i1 %.not15, label %8, label %.loopexit

8:                                                ; preds = %.lr.ph
  %9 = getelementptr inbounds nuw i8, ptr %.01118, i64 560
  %10 = load atomic i64, ptr %9 monotonic, align 16
  tail call void asm sideeffect "", "~{memory},~{dirflag},~{fpsr},~{flags}"() #16, !srcloc !29
  %.not = icmp eq i64 %10, 0
  br i1 %.not, label %.loopexit, label %.lr.ph, !llvm.loop !30

.loopexit:                                        ; preds = %.lr.ph, %8, %5, %4
  %.0 = phi i32 [ -38, %4 ], [ 0, %5 ], [ %7, %.lr.ph ], [ 0, %8 ]
  ret i32 %.0
}